target datalayout = "e-m:e-p270:32:32-p271:32:32-p272:64:64-i64:64-i128:128-f80:128-n8:16:32:64-S128"
target triple = "x86_64-pc-linux-gnu"

%class.ThreadsList = type { i32, i32, ptr, ptr, i64 }

@_ZL23empty_threads_list_data = internal constant [1 x ptr] zeroinitializer, align 8

; Function Attrs: mustprogress nounwind uwtable
define hidden void @_ZN11ThreadsListD2Ev(ptr noundef nonnull align 8 dereferenceable(32) %0) unnamed_addr #1 align 2 {
  %2 = alloca ptr, align 8
  store ptr %0, ptr %2, align 8
  %3 = load ptr, ptr %2, align 8
  %4 = getelementptr inbounds %class.ThreadsList, ptr %3, i32 0, i32 3
  %5 = load ptr, ptr %4, align 8
  %6 = icmp ne ptr %5, @_ZL23empty_threads_list_data
  br i1 %6, label %7, label %10

7:                                                ; preds = %1
  %8 = getelementptr inbounds %class.ThreadsList, ptr %3, i32 0, i32 3
  %9 = load ptr, ptr %8, align 8
  call void @_Z8FreeHeapPv(ptr noundef %9)
  br label %10

10:                                               ; preds = %7, %1
  %11 = getelementptr inbounds %class.ThreadsList, ptr %3, i32 0, i32 0
  store i32 -559038737, ptr %11, align 8
  ret void
}