; Function Attrs: mustprogress nounwind uwtable
define hidden void @_ZN11ThreadsListD2Ev(ptr nocapture noundef nonnull align 8 dereferenceable(32) %0) unnamed_addr #1 align 2 {
  %2 = getelementptr inbounds i8, ptr %0, i64 16
  %3 = load ptr, ptr %2, align 8
  %.not = icmp eq ptr %3, @_ZL23empty_threads_list_data
  br i1 %.not, label %5, label %4

4:                                                ; preds = %1
  tail call void @_Z8FreeHeapPv(ptr noundef %3) #15
  br label %5

5:                                                ; preds = %4, %1
  store i32 -559038737, ptr %0, align 8
  ret void
}